; Function Attrs: nounwind uwtable
define ptr @l_Lean_Elab_Tactic_BVDecide_Frontend_BVCheck_bvCheck___lambda__3___boxed(ptr noundef %0, ptr noundef %1, ptr noundef %2, ptr noundef %3, ptr noundef %4, ptr noundef %5, ptr noundef %6, ptr noundef %7, ptr noundef %8) #0 {
  tail call void @lean_inc_heartbeat() #4
  %10 = tail call noalias ptr @mi_malloc_small(i64 noundef 40) #4
  %11 = icmp eq ptr %10, null
  br i1 %11, label %12, label %l_Lean_Elab_Tactic_BVDecide_Frontend_BVCheck_bvCheck___lambda__3.exit

12:                                               ; preds = %9
  tail call void @lean_internal_panic_out_of_memory() #5
  unreachable

l_Lean_Elab_Tactic_BVDecide_Frontend_BVCheck_bvCheck___lambda__3.exit: ; preds = %9
  %13 = getelementptr inbounds nuw i8, ptr %10, i64 4
  store i32 1, ptr %10, align 4, !tbaa !8
  store i32 -184549336, ptr %13, align 4
  %14 = getelementptr inbounds nuw i8, ptr %10, i64 8
  store ptr @l_Lean_Elab_Tactic_BVDecide_Frontend_BVCheck_bvCheck___lambda__2, ptr %14, align 8, !tbaa !4
  %15 = getelementptr inbounds nuw i8, ptr %10, i64 16
  store i16 7, ptr %15, align 8, !tbaa !14
  %16 = getelementptr inbounds nuw i8, ptr %10, i64 18
  store i16 2, ptr %16, align 2, !tbaa !14
  %17 = getelementptr inbounds nuw i8, ptr %10, i64 24
  store ptr %0, ptr %17, align 8, !tbaa !4
  %18 = getelementptr inbounds nuw i8, ptr %10, i64 32
  store ptr %2, ptr %18, align 8, !tbaa !4
  %19 = load ptr, ptr @l_Lean_Elab_Tactic_BVDecide_Frontend_BVCheck_bvCheck___lambda__3___closed__4, align 8, !tbaa !4
  %20 = load ptr, ptr @l_Lean_Elab_Tactic_BVDecide_Frontend_BVCheck_bvCheck___lambda__3___closed__5, align 8, !tbaa !4
  %21 = load ptr, ptr @l_Lean_Elab_Tactic_BVDecide_Frontend_BVCheck_bvCheck___lambda__2___closed__1, align 8, !tbaa !4
  %22 = tail call ptr @l_Lean_withTraceNode___at_Lean_Elab_Tactic_BVDecide_Frontend_bvUnsat___spec__1(ptr noundef %19, ptr noundef %20, ptr noundef nonnull %10, i8 noundef zeroext 1, ptr noundef %21, ptr noundef %4, ptr noundef %5, ptr noundef %6, ptr noundef %7, ptr noundef %8) #4
  %23 = ptrtoint ptr %3 to i64
  %24 = and i64 %23, 1
  %.not = icmp eq i64 %24, 0
  br i1 %.not, label %25, label %lean_dec.exit12

25:                                               ; preds = %l_Lean_Elab_Tactic_BVDecide_Frontend_BVCheck_bvCheck___lambda__3.exit
  %26 = load i32, ptr %3, align 4, !tbaa !8
  %27 = icmp sgt i32 %26, 1
  br i1 %27, label %28, label %30, !prof !11

28:                                               ; preds = %25
  %29 = add nsw i32 %26, -1
  store i32 %29, ptr %3, align 4, !tbaa !8
  br label %lean_dec.exit12

30:                                               ; preds = %25
  %.not.i = icmp eq i32 %26, 0
  br i1 %.not.i, label %lean_dec.exit12, label %31

31:                                               ; preds = %30
  tail call void @lean_dec_ref_cold(ptr noundef nonnull %3) #4
  br label %lean_dec.exit12

lean_dec.exit12:                                  ; preds = %31, %30, %28, %l_Lean_Elab_Tactic_BVDecide_Frontend_BVCheck_bvCheck___lambda__3.exit
  %32 = ptrtoint ptr %1 to i64
  %33 = and i64 %32, 1
  %.not15 = icmp eq i64 %33, 0
  br i1 %.not15, label %34, label %lean_dec.exit

34:                                               ; preds = %lean_dec.exit12
  %35 = load i32, ptr %1, align 4, !tbaa !8
  %36 = icmp sgt i32 %35, 1
  br i1 %36, label %37, label %39, !prof !11

37:                                               ; preds = %34
  %38 = add nsw i32 %35, -1
  store i32 %38, ptr %1, align 4, !tbaa !8
  br label %lean_dec.exit

39:                                               ; preds = %34
  %.not.i13 = icmp eq i32 %35, 0
  br i1 %.not.i13, label %lean_dec.exit, label %40

40:                                               ; preds = %39
  tail call void @lean_dec_ref_cold(ptr noundef nonnull %1) #4
  br label %lean_dec.exit

lean_dec.exit:                                    ; preds = %40, %39, %37, %lean_dec.exit12
  ret ptr %22
}